; Function Attrs: mustprogress nofree nounwind uwtable
define dso_local void @_ZN30btGeneric6DofSpring2Constraint19setEquilibriumPointEi(ptr noundef nonnull align 8 dereferenceable(1484) %this, i32 noundef %index) local_unnamed_addr #3 align 2 {
entry:
  %m_rbA.i = getelementptr inbounds i8, ptr %this, i64 40
  %0 = load ptr, ptr %m_rbA.i, align 8
  %m_worldTransform.i.i = getelementptr inbounds i8, ptr %0, i64 8
  %m_rbB.i = getelementptr inbounds i8, ptr %this, i64 48
  %1 = load ptr, ptr %m_rbB.i, align 8
  %m_worldTransform.i1.i = getelementptr inbounds i8, ptr %1, i64 8
  tail call void @_ZN30btGeneric6DofSpring2Constraint19calculateTransformsERK11btTransformS2_(ptr noundef nonnull align 8 dereferenceable(1484) %this, ptr noundef nonnull align 4 dereferenceable(64) %m_worldTransform.i.i, ptr noundef nonnull align 4 dereferenceable(64) %m_worldTransform.i1.i)
  %cmp = icmp slt i32 %index, 3
  br i1 %cmp, label %if.then, label %if.else

if.then:                                          ; preds = %entry
  %m_calculatedLinearDiff = getelementptr inbounds i8, ptr %this, i64 1452
  %idxprom = sext i32 %index to i64
  %arrayidx = getelementptr inbounds float, ptr %m_calculatedLinearDiff, i64 %idxprom
  %2 = load float, ptr %arrayidx, align 4
  %m_equilibriumPoint = getelementptr inbounds i8, ptr %this, i64 884
  %arrayidx4 = getelementptr inbounds float, ptr %m_equilibriumPoint, i64 %idxprom
  store float %2, ptr %arrayidx4, align 4
  br label %if.end

if.else:                                          ; preds = %entry
  %m_calculatedAxisAngleDiff = getelementptr inbounds i8, ptr %this, i64 1388
  %sub = add nsw i32 %index, -3
  %idxprom6 = zext nneg i32 %sub to i64
  %arrayidx7 = getelementptr inbounds float, ptr %m_calculatedAxisAngleDiff, i64 %idxprom6
  %3 = load float, ptr %arrayidx7, align 4
  %m_angularLimits = getelementptr inbounds i8, ptr %this, i64 992
  %m_equilibriumPoint11 = getelementptr inbounds [3 x %class.btRotationalLimitMotor2], ptr %m_angularLimits, i64 0, i64 %idxprom6, i32 17
  store float %3, ptr %m_equilibriumPoint11, align 4
  br label %if.end

if.end:                                           ; preds = %if.else, %if.then
  ret void
}